target datalayout = "e-m:e-p270:32:32-p271:32:32-p272:64:64-i64:64-i128:128-f80:128-n8:16:32:64-S128"
target triple = "x86_64-pc-linux-gnu"

%struct.exr_attr_chlist_t = type { i32, i32, ptr }
%struct._priv_exr_context_t = type { i8, i8, i8, i8, i8, i8, i8, i8, %struct.exr_attr_string_t, %struct.exr_attr_string_t, ptr, ptr, ptr, ptr, ptr, ptr, ptr, ptr, i32, i32, i32, i32, i32, float, ptr, ptr, ptr, i64, ptr, ptr, i64, i32, i32, i32, i32, %struct._priv_exr_part_t, ptr, ptr, %struct.exr_attribute_list, %union.pthread_mutex_t, i8, i8, [2 x i8], i32 }
%struct.exr_attr_string_t = type { i32, i32, ptr }
%struct._priv_exr_part_t = type { i32, i32, %struct.exr_attribute_list, ptr, ptr, ptr, ptr, ptr, ptr, ptr, ptr, ptr, ptr, ptr, ptr, ptr, ptr, %struct.exr_attr_box2i_t, %struct.exr_attr_box2i_t, i32, i32, i32, float, i32, i32, ptr, ptr, ptr, ptr, i64, i16, i16, i32, i64, i64 }
%struct.exr_attr_box2i_t = type { %struct.exr_attr_v2i_t, %struct.exr_attr_v2i_t }
%struct.exr_attr_v2i_t = type { i32, i32 }
%struct.exr_attribute_list = type { i32, i32, ptr, ptr }
%union.pthread_mutex_t = type { %struct.__pthread_mutex_s }
%struct.__pthread_mutex_s = type { i32, i32, i32, i32, i32, i16, i16, %struct.__pthread_internal_list }
%struct.__pthread_internal_list = type { ptr, ptr }
%struct.exr_attr_chlist_entry_t = type { %struct.exr_attr_string_t, i32, i8, [3 x i8], i32, i32 }

@.str = private unnamed_addr constant [55 x i8] c"Invalid channel list pointer to chlist_add_with_length\00", align 1
@.str.1 = private unnamed_addr constant [43 x i8] c"Negative number of channels requested (%d)\00", align 1

; Function Attrs: nounwind uwtable
define hidden i32 @exr_attr_chlist_destroy(ptr noundef %0, ptr noundef %1) #0 {
  %3 = alloca i32, align 4
  %4 = alloca ptr, align 8
  %5 = alloca ptr, align 8
  %6 = alloca %struct.exr_attr_chlist_t, align 8
  %7 = alloca i32, align 4
  %8 = alloca ptr, align 8
  %9 = alloca i32, align 4
  store ptr %0, ptr %4, align 8, !tbaa !3
  store ptr %1, ptr %5, align 8, !tbaa !8
  %10 = load ptr, ptr %4, align 8, !tbaa !3
  %11 = icmp ne ptr %10, null
  br i1 %11, label %13, label %12

12:                                               ; preds = %2
  store i32 2, ptr %3, align 4
  br label %52

13:                                               ; preds = %2
  %14 = load ptr, ptr %5, align 8, !tbaa !8
  %15 = icmp ne ptr %14, null
  br i1 %15, label %16, label %51

16:                                               ; preds = %13
  call void @llvm.lifetime.start.p0(i64 16, ptr %6) #6
  call void @llvm.memset.p0.i64(ptr align 8 %6, i8 0, i64 16, i1 false)
  call void @llvm.lifetime.start.p0(i64 4, ptr %7) #6
  %17 = load ptr, ptr %5, align 8, !tbaa !8
  %18 = getelementptr inbounds nuw %struct.exr_attr_chlist_t, ptr %17, i32 0, i32 0
  %19 = load i32, ptr %18, align 8, !tbaa !36
  store i32 %19, ptr %7, align 4, !tbaa !9
  call void @llvm.lifetime.start.p0(i64 8, ptr %8) #6
  %20 = load ptr, ptr %5, align 8, !tbaa !8
  %21 = getelementptr inbounds nuw %struct.exr_attr_chlist_t, ptr %20, i32 0, i32 2
  %22 = load ptr, ptr %21, align 8, !tbaa !30
  %23 = ptrtoint ptr %22 to i64
  %24 = inttoptr i64 %23 to ptr
  store ptr %24, ptr %8, align 8, !tbaa !8
  call void @llvm.lifetime.start.p0(i64 4, ptr %9) #6
  store i32 0, ptr %9, align 4, !tbaa !9
  br label %25

25:                                               ; preds = %38, %16
  %26 = load i32, ptr %9, align 4, !tbaa !9
  %27 = load i32, ptr %7, align 4, !tbaa !9
  %28 = icmp slt i32 %26, %27
  br i1 %28, label %30, label %29

29:                                               ; preds = %25
  call void @llvm.lifetime.end.p0(i64 4, ptr %9) #6
  br label %41

30:                                               ; preds = %25
  %31 = load ptr, ptr %4, align 8, !tbaa !3
  %32 = load ptr, ptr %8, align 8, !tbaa !8
  %33 = load i32, ptr %9, align 4, !tbaa !9
  %34 = sext i32 %33 to i64
  %35 = getelementptr inbounds %struct.exr_attr_chlist_entry_t, ptr %32, i64 %34
  %36 = getelementptr inbounds nuw %struct.exr_attr_chlist_entry_t, ptr %35, i32 0, i32 0
  %37 = call i32 @exr_attr_string_destroy(ptr noundef %31, ptr noundef %36)
  br label %38

38:                                               ; preds = %30
  %39 = load i32, ptr %9, align 4, !tbaa !9
  %40 = add nsw i32 %39, 1
  store i32 %40, ptr %9, align 4, !tbaa !9
  br label %25, !llvm.loop !51

41:                                               ; preds = %29
  %42 = load ptr, ptr %8, align 8, !tbaa !8
  %43 = icmp ne ptr %42, null
  br i1 %43, label %44, label %49

44:                                               ; preds = %41
  %45 = load ptr, ptr %4, align 8, !tbaa !3
  %46 = getelementptr inbounds nuw %struct._priv_exr_context_t, ptr %45, i32 0, i32 17
  %47 = load ptr, ptr %46, align 8, !tbaa !48
  %48 = load ptr, ptr %8, align 8, !tbaa !8
  call void %47(ptr noundef %48)
  br label %49

49:                                               ; preds = %44, %41
  %50 = load ptr, ptr %5, align 8, !tbaa !8
  call void @llvm.memcpy.p0.p0.i64(ptr align 8 %50, ptr align 8 %6, i64 16, i1 false), !tbaa.struct !27
  call void @llvm.lifetime.end.p0(i64 8, ptr %8) #6
  call void @llvm.lifetime.end.p0(i64 4, ptr %7) #6
  call void @llvm.lifetime.end.p0(i64 16, ptr %6) #6
  br label %51

51:                                               ; preds = %49, %13
  store i32 0, ptr %3, align 4
  br label %52

52:                                               ; preds = %51, %12
  %53 = load i32, ptr %3, align 4
  ret i32 %53
}

; Function Attrs: nounwind uwtable
define hidden i32 @exr_attr_chlist_init(ptr noundef %0, ptr noundef %1, i32 noundef %2) #0 {
  %4 = alloca i32, align 4
  %5 = alloca ptr, align 8
  %6 = alloca ptr, align 8
  %7 = alloca i32, align 4
  %8 = alloca %struct.exr_attr_chlist_t, align 8
  %9 = alloca ptr, align 8
  %10 = alloca i32, align 4
  store ptr %0, ptr %5, align 8, !tbaa !3
  store ptr %1, ptr %6, align 8, !tbaa !8
  store i32 %2, ptr %7, align 4, !tbaa !9
  call void @llvm.lifetime.start.p0(i64 16, ptr %8) #6
  call void @llvm.memset.p0.i64(ptr align 8 %8, i8 0, i64 16, i1 false)
  call void @llvm.lifetime.start.p0(i64 8, ptr %9) #6
  %11 = load ptr, ptr %5, align 8, !tbaa !3
  %12 = icmp ne ptr %11, null
  br i1 %12, label %14, label %13

13:                                               ; preds = %3
  store i32 2, ptr %4, align 4
  store i32 1, ptr %10, align 4
  br label %62

14:                                               ; preds = %3
  %15 = load ptr, ptr %6, align 8, !tbaa !8
  %16 = icmp ne ptr %15, null
  br i1 %16, label %23, label %17

17:                                               ; preds = %14
  %18 = load ptr, ptr %5, align 8, !tbaa !3
  %19 = getelementptr inbounds nuw %struct._priv_exr_context_t, ptr %18, i32 0, i32 13
  %20 = load ptr, ptr %19, align 8, !tbaa !11
  %21 = load ptr, ptr %5, align 8, !tbaa !3
  %22 = call i32 %20(ptr noundef %21, i32 noundef 3, ptr noundef @.str)
  store i32 %22, ptr %4, align 4
  store i32 1, ptr %10, align 4
  br label %62

23:                                               ; preds = %14
  %24 = load i32, ptr %7, align 4, !tbaa !9
  %25 = icmp slt i32 %24, 0
  br i1 %25, label %26, label %33

26:                                               ; preds = %23
  %27 = load ptr, ptr %5, align 8, !tbaa !3
  %28 = getelementptr inbounds nuw %struct._priv_exr_context_t, ptr %27, i32 0, i32 14
  %29 = load ptr, ptr %28, align 8, !tbaa !26
  %30 = load ptr, ptr %5, align 8, !tbaa !3
  %31 = load i32, ptr %7, align 4, !tbaa !9
  %32 = call i32 (ptr, i32, ptr, ...) %29(ptr noundef %30, i32 noundef 3, ptr noundef @.str.1, i32 noundef %31)
  store i32 %32, ptr %4, align 4
  store i32 1, ptr %10, align 4
  br label %62

33:                                               ; preds = %23
  %34 = load ptr, ptr %6, align 8, !tbaa !8
  call void @llvm.memcpy.p0.p0.i64(ptr align 8 %34, ptr align 8 %8, i64 16, i1 false), !tbaa.struct !27
  %35 = load i32, ptr %7, align 4, !tbaa !9
  %36 = icmp sgt i32 %35, 0
  br i1 %36, label %37, label %54

37:                                               ; preds = %33
  %38 = load ptr, ptr %5, align 8, !tbaa !3
  %39 = getelementptr inbounds nuw %struct._priv_exr_context_t, ptr %38, i32 0, i32 16
  %40 = load ptr, ptr %39, align 8, !tbaa !28
  %41 = load i32, ptr %7, align 4, !tbaa !9
  %42 = sext i32 %41 to i64
  %43 = mul i64 32, %42
  %44 = call ptr %40(i64 noundef %43)
  store ptr %44, ptr %9, align 8, !tbaa !8
  %45 = load ptr, ptr %9, align 8, !tbaa !8
  %46 = icmp eq ptr %45, null
  br i1 %46, label %47, label %53

47:                                               ; preds = %37
  %48 = load ptr, ptr %5, align 8, !tbaa !3
  %49 = getelementptr inbounds nuw %struct._priv_exr_context_t, ptr %48, i32 0, i32 12
  %50 = load ptr, ptr %49, align 8, !tbaa !29
  %51 = load ptr, ptr %5, align 8, !tbaa !3
  %52 = call i32 %50(ptr noundef %51, i32 noundef 1)
  store i32 %52, ptr %4, align 4
  store i32 1, ptr %10, align 4
  br label %62

53:                                               ; preds = %37
  br label %55

54:                                               ; preds = %33
  store ptr null, ptr %9, align 8, !tbaa !8
  br label %55

55:                                               ; preds = %54, %53
  %56 = load ptr, ptr %9, align 8, !tbaa !8
  %57 = load ptr, ptr %6, align 8, !tbaa !8
  %58 = getelementptr inbounds nuw %struct.exr_attr_chlist_t, ptr %57, i32 0, i32 2
  store ptr %56, ptr %58, align 8, !tbaa !30
  %59 = load i32, ptr %7, align 4, !tbaa !9
  %60 = load ptr, ptr %6, align 8, !tbaa !8
  %61 = getelementptr inbounds nuw %struct.exr_attr_chlist_t, ptr %60, i32 0, i32 1
  store i32 %59, ptr %61, align 4, !tbaa !32
  store i32 0, ptr %4, align 4
  store i32 1, ptr %10, align 4
  br label %62

62:                                               ; preds = %55, %47, %26, %17, %13
  call void @llvm.lifetime.end.p0(i64 8, ptr %9) #6
  call void @llvm.lifetime.end.p0(i64 16, ptr %8) #6
  %63 = load i32, ptr %4, align 4
  ret i32 %63
}

; Function Attrs: nounwind uwtable
define hidden i32 @exr_attr_chlist_duplicate(ptr noundef %0, ptr noundef %1, ptr noundef %2) #0 {
  %4 = alloca i32, align 4
  %5 = alloca ptr, align 8
  %6 = alloca ptr, align 8
  %7 = alloca ptr, align 8
  %8 = alloca i32, align 4
  %9 = alloca i32, align 4
  %10 = alloca i32, align 4
  %11 = alloca i32, align 4
  %12 = alloca ptr, align 8
  store ptr %0, ptr %5, align 8, !tbaa !3
  store ptr %1, ptr %6, align 8, !tbaa !8
  store ptr %2, ptr %7, align 8, !tbaa !8
  call void @llvm.lifetime.start.p0(i64 4, ptr %8) #6
  call void @llvm.lifetime.start.p0(i64 4, ptr %9) #6
  %13 = load ptr, ptr %6, align 8, !tbaa !8
  %14 = icmp ne ptr %13, null
  br i1 %14, label %15, label %18

15:                                               ; preds = %3
  %16 = load ptr, ptr %7, align 8, !tbaa !8
  %17 = icmp ne ptr %16, null
  br i1 %17, label %19, label %18

18:                                               ; preds = %15, %3
  store i32 3, ptr %4, align 4
  store i32 1, ptr %10, align 4
  br label %86

19:                                               ; preds = %15
  %20 = load ptr, ptr %7, align 8, !tbaa !8
  %21 = getelementptr inbounds nuw %struct.exr_attr_chlist_t, ptr %20, i32 0, i32 0
  %22 = load i32, ptr %21, align 8, !tbaa !36
  store i32 %22, ptr %9, align 4, !tbaa !9
  %23 = load ptr, ptr %5, align 8, !tbaa !3
  %24 = load ptr, ptr %6, align 8, !tbaa !8
  %25 = load i32, ptr %9, align 4, !tbaa !9
  %26 = call i32 @exr_attr_chlist_init(ptr noundef %23, ptr noundef %24, i32 noundef %25)
  store i32 %26, ptr %8, align 4, !tbaa !9
  %27 = load i32, ptr %8, align 4, !tbaa !9
  %28 = icmp ne i32 %27, 0
  br i1 %28, label %29, label %31

29:                                               ; preds = %19
  %30 = load i32, ptr %8, align 4, !tbaa !9
  store i32 %30, ptr %4, align 4
  store i32 1, ptr %10, align 4
  br label %86

31:                                               ; preds = %19
  call void @llvm.lifetime.start.p0(i64 4, ptr %11) #6
  store i32 0, ptr %11, align 4, !tbaa !9
  br label %32

32:                                               ; preds = %79, %31
  %33 = load i32, ptr %11, align 4, !tbaa !9
  %34 = load i32, ptr %9, align 4, !tbaa !9
  %35 = icmp slt i32 %33, %34
  br i1 %35, label %37, label %36

36:                                               ; preds = %32
  store i32 2, ptr %10, align 4
  br label %82

37:                                               ; preds = %32
  call void @llvm.lifetime.start.p0(i64 8, ptr %12) #6
  %38 = load ptr, ptr %7, align 8, !tbaa !8
  %39 = getelementptr inbounds nuw %struct.exr_attr_chlist_t, ptr %38, i32 0, i32 2
  %40 = load ptr, ptr %39, align 8, !tbaa !30
  %41 = load i32, ptr %11, align 4, !tbaa !9
  %42 = sext i32 %41 to i64
  %43 = getelementptr inbounds %struct.exr_attr_chlist_entry_t, ptr %40, i64 %42
  store ptr %43, ptr %12, align 8, !tbaa !8
  %44 = load ptr, ptr %5, align 8, !tbaa !3
  %45 = load ptr, ptr %6, align 8, !tbaa !8
  %46 = load ptr, ptr %12, align 8, !tbaa !8
  %47 = getelementptr inbounds nuw %struct.exr_attr_chlist_entry_t, ptr %46, i32 0, i32 0
  %48 = getelementptr inbounds nuw %struct.exr_attr_string_t, ptr %47, i32 0, i32 2
  %49 = load ptr, ptr %48, align 8, !tbaa !37
  %50 = load ptr, ptr %12, align 8, !tbaa !8
  %51 = getelementptr inbounds nuw %struct.exr_attr_chlist_entry_t, ptr %50, i32 0, i32 0
  %52 = getelementptr inbounds nuw %struct.exr_attr_string_t, ptr %51, i32 0, i32 0
  %53 = load i32, ptr %52, align 8, !tbaa !49
  %54 = load ptr, ptr %12, align 8, !tbaa !8
  %55 = getelementptr inbounds nuw %struct.exr_attr_chlist_entry_t, ptr %54, i32 0, i32 1
  %56 = load i32, ptr %55, align 8, !tbaa !41
  %57 = load ptr, ptr %12, align 8, !tbaa !8
  %58 = getelementptr inbounds nuw %struct.exr_attr_chlist_entry_t, ptr %57, i32 0, i32 2
  %59 = load i8, ptr %58, align 4, !tbaa !42
  %60 = zext i8 %59 to i32
  %61 = load ptr, ptr %12, align 8, !tbaa !8
  %62 = getelementptr inbounds nuw %struct.exr_attr_chlist_entry_t, ptr %61, i32 0, i32 4
  %63 = load i32, ptr %62, align 8, !tbaa !43
  %64 = load ptr, ptr %12, align 8, !tbaa !8
  %65 = getelementptr inbounds nuw %struct.exr_attr_chlist_entry_t, ptr %64, i32 0, i32 5
  %66 = load i32, ptr %65, align 4, !tbaa !44
  %67 = call i32 @exr_attr_chlist_add_with_length(ptr noundef %44, ptr noundef %45, ptr noundef %49, i32 noundef %53, i32 noundef %56, i32 noundef %60, i32 noundef %63, i32 noundef %66)
  store i32 %67, ptr %8, align 4, !tbaa !9
  %68 = load i32, ptr %8, align 4, !tbaa !9
  %69 = icmp ne i32 %68, 0
  br i1 %69, label %70, label %75

70:                                               ; preds = %37
  %71 = load ptr, ptr %5, align 8, !tbaa !3
  %72 = load ptr, ptr %6, align 8, !tbaa !8
  %73 = call i32 @exr_attr_chlist_destroy(ptr noundef %71, ptr noundef %72)
  %74 = load i32, ptr %8, align 4, !tbaa !9
  store i32 %74, ptr %4, align 4
  store i32 1, ptr %10, align 4
  br label %76

75:                                               ; preds = %37
  store i32 0, ptr %10, align 4
  br label %76

76:                                               ; preds = %75, %70
  call void @llvm.lifetime.end.p0(i64 8, ptr %12) #6
  %77 = load i32, ptr %10, align 4
  switch i32 %77, label %82 [
    i32 0, label %78
  ]

78:                                               ; preds = %76
  br label %79

79:                                               ; preds = %78
  %80 = load i32, ptr %11, align 4, !tbaa !9
  %81 = add nsw i32 %80, 1
  store i32 %81, ptr %11, align 4, !tbaa !9
  br label %32, !llvm.loop !50

82:                                               ; preds = %76, %36
  call void @llvm.lifetime.end.p0(i64 4, ptr %11) #6
  %83 = load i32, ptr %10, align 4
  switch i32 %83, label %86 [
    i32 2, label %84
  ]

84:                                               ; preds = %82
  %85 = load i32, ptr %8, align 4, !tbaa !9
  store i32 %85, ptr %4, align 4
  store i32 1, ptr %10, align 4
  br label %86

86:                                               ; preds = %84, %82, %29, %18
  call void @llvm.lifetime.end.p0(i64 4, ptr %9) #6
  call void @llvm.lifetime.end.p0(i64 4, ptr %8) #6
  %87 = load i32, ptr %4, align 4
  ret i32 %87
}