; Function Attrs: nounwind uwtable
define hidden i32 @exr_attr_chlist_duplicate(ptr noundef %0, ptr noundef %1, ptr noundef readonly %2) local_unnamed_addr #0 {
  %4 = icmp ne ptr %1, null
  %5 = icmp ne ptr %2, null
  %or.cond = and i1 %4, %5
  br i1 %or.cond, label %6, label %exr_attr_chlist_init.exit.thread

6:                                                ; preds = %3
  %7 = load i32, ptr %2, align 8, !tbaa !30
  %.not.i = icmp eq ptr %0, null
  br i1 %.not.i, label %exr_attr_chlist_init.exit.thread, label %8

8:                                                ; preds = %6
  %9 = icmp slt i32 %7, 0
  br i1 %9, label %10, label %14

10:                                               ; preds = %8
  %11 = getelementptr inbounds nuw i8, ptr %0, i64 72
  %12 = load ptr, ptr %11, align 8, !tbaa !22
  %13 = tail call i32 (ptr, i32, ptr, ...) %12(ptr noundef nonnull %0, i32 noundef 3, ptr noundef nonnull @.str.1, i32 noundef %7) #6
  br label %exr_attr_chlist_init.exit

14:                                               ; preds = %8
  tail call void @llvm.memset.p0.i64(ptr noundef nonnull align 8 dereferenceable(16) %1, i8 0, i64 16, i1 false)
  %.not25.i = icmp eq i32 %7, 0
  br i1 %.not25.i, label %exr_attr_chlist_init.exit.thread50, label %15

15:                                               ; preds = %14
  %16 = getelementptr inbounds nuw i8, ptr %0, i64 88
  %17 = load ptr, ptr %16, align 8, !tbaa !23
  %18 = zext nneg i32 %7 to i64
  %19 = shl nuw nsw i64 %18, 5
  %20 = tail call ptr %17(i64 noundef %19) #6
  %21 = icmp eq ptr %20, null
  br i1 %21, label %22, label %exr_attr_chlist_init.exit.thread50

22:                                               ; preds = %15
  %23 = getelementptr inbounds nuw i8, ptr %0, i64 56
  %24 = load ptr, ptr %23, align 8, !tbaa !24
  %25 = tail call i32 %24(ptr noundef nonnull %0, i32 noundef 1) #6
  br label %exr_attr_chlist_init.exit

exr_attr_chlist_init.exit.thread50:               ; preds = %14, %15
  %.0.i = phi ptr [ %20, %15 ], [ null, %14 ]
  %26 = getelementptr inbounds nuw i8, ptr %1, i64 8
  store ptr %.0.i, ptr %26, align 8, !tbaa !25
  %27 = getelementptr inbounds nuw i8, ptr %1, i64 4
  store i32 %7, ptr %27, align 4, !tbaa !27
  br label %.preheader

exr_attr_chlist_init.exit:                        ; preds = %10, %22
  %.019.i = phi i32 [ %13, %10 ], [ %25, %22 ]
  %.not = icmp eq i32 %.019.i, 0
  br i1 %.not, label %.preheader, label %exr_attr_chlist_init.exit.thread

.preheader:                                       ; preds = %exr_attr_chlist_init.exit.thread50, %exr_attr_chlist_init.exit
  %.not4146 = icmp sgt i32 %7, 0
  br i1 %.not4146, label %exr_attr_chlist_destroy.exit.lr.ph, label %exr_attr_chlist_init.exit.thread

exr_attr_chlist_destroy.exit.lr.ph:               ; preds = %.preheader
  %28 = getelementptr inbounds nuw i8, ptr %2, i64 8
  %wide.trip.count = zext nneg i32 %7 to i64
  br label %exr_attr_chlist_destroy.exit

29:                                               ; preds = %exr_attr_chlist_destroy.exit
  %indvars.iv.next = add nuw nsw i64 %indvars.iv, 1
  %exitcond.not = icmp eq i64 %indvars.iv.next, %wide.trip.count
  br i1 %exitcond.not, label %exr_attr_chlist_init.exit.thread, label %exr_attr_chlist_destroy.exit, !llvm.loop !45

exr_attr_chlist_destroy.exit:                     ; preds = %exr_attr_chlist_destroy.exit.lr.ph, %29
  %indvars.iv = phi i64 [ 0, %exr_attr_chlist_destroy.exit.lr.ph ], [ %indvars.iv.next, %29 ]
  %30 = load ptr, ptr %28, align 8, !tbaa !25
  %31 = getelementptr inbounds nuw %struct.exr_attr_chlist_entry_t, ptr %30, i64 %indvars.iv
  %32 = getelementptr inbounds nuw i8, ptr %31, i64 8
  %33 = load ptr, ptr %32, align 8, !tbaa !31
  %34 = load i32, ptr %31, align 8, !tbaa !46
  %35 = getelementptr inbounds nuw i8, ptr %31, i64 16
  %36 = load i32, ptr %35, align 8, !tbaa !35
  %37 = getelementptr inbounds nuw i8, ptr %31, i64 20
  %38 = load i8, ptr %37, align 4, !tbaa !36
  %39 = zext i8 %38 to i32
  %40 = getelementptr inbounds nuw i8, ptr %31, i64 24
  %41 = load i32, ptr %40, align 8, !tbaa !37
  %42 = getelementptr inbounds nuw i8, ptr %31, i64 28
  %43 = load i32, ptr %42, align 4, !tbaa !38
  %44 = tail call i32 @exr_attr_chlist_add_with_length(ptr noundef nonnull %0, ptr noundef nonnull %1, ptr noundef %33, i32 noundef %34, i32 noundef %36, i32 noundef %39, i32 noundef %41, i32 noundef %43)
  %.not40 = icmp eq i32 %44, 0
  br i1 %.not40, label %29, label %45

45:                                               ; preds = %exr_attr_chlist_destroy.exit
  %46 = load i32, ptr %1, align 8, !tbaa !30
  %47 = getelementptr inbounds nuw i8, ptr %1, i64 8
  %48 = load ptr, ptr %47, align 8, !tbaa !25
  %49 = icmp sgt i32 %46, 0
  br i1 %49, label %.lr.ph.preheader.i, label %._crit_edge.i

.lr.ph.preheader.i:                               ; preds = %45
  %wide.trip.count.i = zext nneg i32 %46 to i64
  br label %.lr.ph.i

._crit_edge.i:                                    ; preds = %.lr.ph.i, %45
  %.not19.i = icmp eq ptr %48, null
  br i1 %.not19.i, label %55, label %52

.lr.ph.i:                                         ; preds = %.lr.ph.i, %.lr.ph.preheader.i
  %indvars.iv.i = phi i64 [ 0, %.lr.ph.preheader.i ], [ %indvars.iv.next.i, %.lr.ph.i ]
  %50 = getelementptr inbounds nuw %struct.exr_attr_chlist_entry_t, ptr %48, i64 %indvars.iv.i
  %51 = tail call i32 @exr_attr_string_destroy(ptr noundef nonnull %0, ptr noundef %50) #6
  %indvars.iv.next.i = add nuw nsw i64 %indvars.iv.i, 1
  %exitcond.not.i = icmp eq i64 %indvars.iv.next.i, %wide.trip.count.i
  br i1 %exitcond.not.i, label %._crit_edge.i, label %.lr.ph.i, !llvm.loop !47

52:                                               ; preds = %._crit_edge.i
  %53 = getelementptr inbounds nuw i8, ptr %0, i64 96
  %54 = load ptr, ptr %53, align 8, !tbaa !43
  tail call void %54(ptr noundef nonnull %48) #6
  br label %55

55:                                               ; preds = %52, %._crit_edge.i
  tail call void @llvm.memset.p0.i64(ptr noundef nonnull align 8 dereferenceable(16) %1, i8 0, i64 16, i1 false)
  br label %exr_attr_chlist_init.exit.thread

exr_attr_chlist_init.exit.thread:                 ; preds = %29, %.preheader, %55, %6, %exr_attr_chlist_init.exit, %3
  %.0 = phi i32 [ 3, %3 ], [ %.019.i, %exr_attr_chlist_init.exit ], [ 2, %6 ], [ %44, %55 ], [ 0, %.preheader ], [ 0, %29 ]
  ret i32 %.0
}